; Function Attrs: mustprogress uwtable
define dso_local void @_Z7GetInfoIN32pxrInternal_v0_24__pxrReserved__7GfVec4iEEvPNS0_7VtArrayIT_EEPNSt7__cxx1112basic_stringIcSt11char_traitsIcESaIcEEE(ptr noundef %0, ptr noundef nonnull %1) local_unnamed_addr #3 personality ptr @__gxx_personality_v0 {
  %3 = alloca %"class.pxrInternal_v0_24__pxrReserved__::VtArray.99", align 8
  %4 = tail call noundef nonnull align 8 dereferenceable(32) ptr @_ZNSt7__cxx1112basic_stringIcSt11char_traitsIcESaIcEEaSEPKc(ptr noundef nonnull align 8 dereferenceable(32) %1, ptr noundef nonnull @.str.76)
  call void @_ZN32pxrInternal_v0_24__pxrReserved__7VtArrayINS_7GfVec4iEEC1Em(ptr noundef nonnull align 8 dereferenceable(40) %3, i64 noundef 3)
  %5 = invoke noundef nonnull align 8 dereferenceable(40) ptr @_ZN32pxrInternal_v0_24__pxrReserved__7VtArrayINS_7GfVec4iEEaSEOS2_(ptr noundef nonnull align 8 dereferenceable(40) %0, ptr noundef nonnull align 8 dereferenceable(40) %3)
          to label %6 unwind label %10

6:                                                ; preds = %2
  call void @_ZN32pxrInternal_v0_24__pxrReserved__7VtArrayINS_7GfVec4iEED1Ev(ptr noundef nonnull align 8 dereferenceable(40) %3) #25
  %7 = call noundef nonnull align 4 dereferenceable(16) ptr @_ZN32pxrInternal_v0_24__pxrReserved__7VtArrayINS_7GfVec4iEEixEm(ptr noundef nonnull align 8 dereferenceable(40) %0, i64 noundef 0)
  store i32 1, ptr %7, align 4
  %.sroa.211.0..sroa_idx = getelementptr inbounds i8, ptr %7, i64 4
  store i32 2, ptr %.sroa.211.0..sroa_idx, align 4
  %.sroa.312.0..sroa_idx = getelementptr inbounds i8, ptr %7, i64 8
  store i32 3, ptr %.sroa.312.0..sroa_idx, align 4
  %.sroa.413.0..sroa_idx = getelementptr inbounds i8, ptr %7, i64 12
  store i32 4, ptr %.sroa.413.0..sroa_idx, align 4
  %8 = call noundef nonnull align 4 dereferenceable(16) ptr @_ZN32pxrInternal_v0_24__pxrReserved__7VtArrayINS_7GfVec4iEEixEm(ptr noundef nonnull align 8 dereferenceable(40) %0, i64 noundef 1)
  store i32 5, ptr %8, align 4
  %.sroa.27.0..sroa_idx = getelementptr inbounds i8, ptr %8, i64 4
  store i32 6, ptr %.sroa.27.0..sroa_idx, align 4
  %.sroa.38.0..sroa_idx = getelementptr inbounds i8, ptr %8, i64 8
  store i32 7, ptr %.sroa.38.0..sroa_idx, align 4
  %.sroa.49.0..sroa_idx = getelementptr inbounds i8, ptr %8, i64 12
  store i32 8, ptr %.sroa.49.0..sroa_idx, align 4
  %9 = call noundef nonnull align 4 dereferenceable(16) ptr @_ZN32pxrInternal_v0_24__pxrReserved__7VtArrayINS_7GfVec4iEEixEm(ptr noundef nonnull align 8 dereferenceable(40) %0, i64 noundef 2)
  store i32 9, ptr %9, align 4
  %.sroa.2.0..sroa_idx = getelementptr inbounds i8, ptr %9, i64 4
  store i32 10, ptr %.sroa.2.0..sroa_idx, align 4
  %.sroa.3.0..sroa_idx = getelementptr inbounds i8, ptr %9, i64 8
  store i32 11, ptr %.sroa.3.0..sroa_idx, align 4
  %.sroa.4.0..sroa_idx = getelementptr inbounds i8, ptr %9, i64 12
  store i32 12, ptr %.sroa.4.0..sroa_idx, align 4
  ret void

10:                                               ; preds = %2
  %11 = landingpad { ptr, i32 }
          cleanup
  call void @_ZN32pxrInternal_v0_24__pxrReserved__7VtArrayINS_7GfVec4iEED1Ev(ptr noundef nonnull align 8 dereferenceable(40) %3) #25
  resume { ptr, i32 } %11
}